<*GNU-Linker-generated-mapfile*> 
generated for DSx86_32 platform 
collect2 version 5.2.0
C:/ProgramData/dSPACE/ad34425a-2298-40d1-8728-e06238c82a90/Compiler/QNX650_520/host/win32/x86/usr/bin/i486-pc-nto-qnx6.5.0-ld.exe -plugin c:/programdata/dspace/ad34425a-2298-40d1-8728-e06238c82a90/compiler/qnx650_520/host/win32/x86/usr/bin/../lib/gcc/i486-pc-nto-qnx6.5.0/5.2.0/liblto_plugin-0.dll -plugin-opt=c:/programdata/dspace/ad34425a-2298-40d1-8728-e06238c82a90/compiler/qnx650_520/host/win32/x86/usr/bin/../lib/gcc/i486-pc-nto-qnx6.5.0/5.2.0/lto-wrapper.exe -plugin-opt=-fresolution=C:\Users\yangyang.fu\AppData\Local\Temp\ccZiAjF9.res -plugin-opt=-pass-through=-lgcc -plugin-opt=-pass-through=-lc -plugin-opt=-pass-through=-lc -plugin-opt=-pass-through=-lgcc --sysroot=/opt/qnx650/target/qnx6/ --eh-frame-hdr --build-id=md5 -Y P,/opt/qnx650/target/qnx6//lib -Qy -m i386nto --dynamic-linker /usr/lib/ldqnx.so.2 C:\ProgramData\dSPACE\ad34425a-2298-40d1-8728-e06238c82a90\Compiler\QNX650_520\target\qnx6/x86/lib/crt1.o C:\ProgramData\dSPACE\ad34425a-2298-40d1-8728-e06238c82a90\Compiler\QNX650_520\target\qnx6/x86/lib/crti.o c:/programdata/dspace/ad34425a-2298-40d1-8728-e06238c82a90/compiler/qnx650_520/host/win32/x86/usr/bin/../lib/gcc/i486-pc-nto-qnx6.5.0/5.2.0/crtbegin.o -Lc:/programdata/dspace/ad34425a-2298-40d1-8728-e06238c82a90/compiler/qnx650_520/host/win32/x86/usr/bin/../lib/gcc/i486-pc-nto-qnx6.5.0/5.2.0 -Lc:/programdata/dspace/ad34425a-2298-40d1-8728-e06238c82a90/compiler/qnx650_520/host/win32/x86/usr/bin/../lib/gcc -L C:\ProgramData\dSPACE\ad34425a-2298-40d1-8728-e06238c82a90\Compiler\QNX650_520\target\qnx6/x86/lib/gcc/5.2.0 -L C:\ProgramData\dSPACE\ad34425a-2298-40d1-8728-e06238c82a90\Compiler\QNX650_520\target\qnx6/x86/lib -L C:\ProgramData\dSPACE\ad34425a-2298-40d1-8728-e06238c82a90\Compiler\QNX650_520\target\qnx6/x86/usr/lib -L C:\ProgramData\dSPACE\ad34425a-2298-40d1-8728-e06238c82a90\Compiler\QNX650_520\target\qnx6/x86/opt/lib -rpath-link C:\ProgramData\dSPACE\ad34425a-2298-40d1-8728-e06238c82a90\Compiler\QNX650_520\target\qnx6/x86/lib/gcc/5.2.0:C:\ProgramData\dSPACE\ad34425a-2298-40d1-8728-e06238c82a90\Compiler\QNX650_520\target\qnx6/x86/lib:C:\ProgramData\dSPACE\ad34425a-2298-40d1-8728-e06238c82a90\Compiler\QNX650_520\target\qnx6/x86/usr/lib:C:\ProgramData\dSPACE\ad34425a-2298-40d1-8728-e06238c82a90\Compiler\QNX650_520\target\qnx6/x86/opt/lib -v --unresolved-symbols=ignore-all -lstdc++ -lm -lgcc -lc -Bstatic -lc -lgcc c:/programdata/dspace/ad34425a-2298-40d1-8728-e06238c82a90/compiler/qnx650_520/host/win32/x86/usr/bin/../lib/gcc/i486-pc-nto-qnx6.5.0/5.2.0/crtend.o C:\ProgramData\dSPACE\ad34425a-2298-40d1-8728-e06238c82a90\Compiler\QNX650_520\target\qnx6/x86/lib/crtn.o
GNU ld (GNU Binutils) 2.25.1
Archive member included to satisfy reference by file (symbol)

D:\github\dspace-modelica-example\dSpaceExample\FiveZoneDemo\ModelicaConstant\Components\ds_modelica_constant\ds_modelica_constant_dsrt\ds_modelica_constant.a(ds_modelica_constant_dsrtmdlfcn.o86)
                              dssimengine_accesspoint.o86 (ds_modelica_constant_DSRTInitMdl)
D:\github\dspace-modelica-example\dSpaceExample\FiveZoneDemo\ModelicaConstant\Components\ds_modelica_constant\ds_modelica_constant_dsrt\ds_modelica_constant.a(ds_modelica_constant_dsrttf.o86)
                              rtosal_task.o86 (ds_modelica_constant_DSRTMdlOutputs0)
D:\github\dspace-modelica-example\dSpaceExample\FiveZoneDemo\ModelicaConstant\Components\ds_modelica_constant\ds_modelica_constant_dsrt\ds_modelica_constant.a(ds_modelica_constant.o86)
                              D:\github\dspace-modelica-example\dSpaceExample\FiveZoneDemo\ModelicaConstant\Components\ds_modelica_constant\ds_modelica_constant_dsrt\ds_modelica_constant.a(ds_modelica_constant_dsrttf.o86) (ds_modelica_constant_output)
D:\github\dspace-modelica-example\dSpaceExample\FiveZoneDemo\ModelicaConstant\Components\ds_modelica_constant\ds_modelica_constant_dsrt\ds_modelica_constant.a(ds_modelica_constant_data.o86)
                              D:\github\dspace-modelica-example\dSpaceExample\FiveZoneDemo\ModelicaConstant\Components\ds_modelica_constant\ds_modelica_constant_dsrt\ds_modelica_constant.a(ds_modelica_constant.o86) (ds_modelica_constant_P)
D:\github\dspace-modelica-example\dSpaceExample\FiveZoneDemo\ModelicaConstant\Components\ds_modelica_constant\ds_modelica_constant_dsrt\ds_modelica_constant.a(ds_modelica_constant_dsrtvdf.o86)
                              D:\github\dspace-modelica-example\dSpaceExample\FiveZoneDemo\ModelicaConstant\Components\ds_modelica_constant\ds_modelica_constant_dsrt\ds_modelica_constant.a(ds_modelica_constant.o86) (ds_modelica_constant_rti_init_trc_pointers)
D:\github\dspace-modelica-example\dSpaceExample\FiveZoneDemo\ModelicaConstant\Components\ds_modelica_constant\ds_modelica_constant_dsrt\ds_modelica_constant.a(rt_nonfinite.o86)
                              D:\github\dspace-modelica-example\dSpaceExample\FiveZoneDemo\ModelicaConstant\Components\ds_modelica_constant\ds_modelica_constant_dsrt\ds_modelica_constant.a(ds_modelica_constant.o86) (rt_InitInfAndNaN)
D:\github\dspace-modelica-example\dSpaceExample\FiveZoneDemo\ModelicaConstant\Components\ds_modelica_constant\ds_modelica_constant_dsrt\ds_modelica_constant.a(dspaceexample_t_dy2600gstg0.o86)
                              D:\github\dspace-modelica-example\dSpaceExample\FiveZoneDemo\ModelicaConstant\Components\ds_modelica_constant\ds_modelica_constant_dsrt\ds_modelica_constant.a(ds_modelica_constant.o86) (dspaceexample_t_dy2600gstg0)
D:\github\dspace-modelica-example\dSpaceExample\FiveZoneDemo\ModelicaConstant\Components\ds_modelica_constant\ds_modelica_constant_dsrt\ds_modelica_constant.a(rtGetInf.o86)
                              D:\github\dspace-modelica-example\dSpaceExample\FiveZoneDemo\ModelicaConstant\Components\ds_modelica_constant\ds_modelica_constant_dsrt\ds_modelica_constant.a(rt_nonfinite.o86) (rtGetInf)
D:\github\dspace-modelica-example\dSpaceExample\FiveZoneDemo\ModelicaConstant\Components\ds_modelica_constant\ds_modelica_constant_dsrt\ds_modelica_constant.a(rtGetNaN.o86)
                              D:\github\dspace-modelica-example\dSpaceExample\FiveZoneDemo\ModelicaConstant\Components\ds_modelica_constant\ds_modelica_constant_dsrt\ds_modelica_constant.a(rt_nonfinite.o86) (rtGetNaN)
C:\Program Files\dSPACE RCPHIL 2020-A\SCALEXIO\Lib\libm_fastpow.a(w_pow.o)
                              C:\Program Files\dSPACE RCPHIL 2020-A\SCALEXIO\Lib/libDsRtLib.so (pow)
C:\Program Files\dSPACE RCPHIL 2020-A\SCALEXIO\Lib\libm_fastpow.a(e_pow.o)
                              C:\Program Files\dSPACE RCPHIL 2020-A\SCALEXIO\Lib\libm_fastpow.a(w_pow.o) (__ieee754_pow)

As-needed library included to satisfy reference by file (symbol)

libDsRealTimeTestingRP.so.1   rtosal_simengineap.o86 (dsrtt_mp_register_config)

Discarded input sections

 __x86.get_pc_thunk.dx
                0x0000000000000000        0x8 c:/programdata/dspace/ad34425a-2298-40d1-8728-e06238c82a90/compiler/qnx650_520/host/win32/x86/usr/bin/../lib/gcc/i486-pc-nto-qnx6.5.0/5.2.0/crtbegin.o
 __x86.get_pc_thunk.bx
                0x0000000000000000        0x8 c:/programdata/dspace/ad34425a-2298-40d1-8728-e06238c82a90/compiler/qnx650_520/host/win32/x86/usr/bin/../lib/gcc/i486-pc-nto-qnx6.5.0/5.2.0/crtbegin.o
 .group         0x0000000000000000        0x8 dssimengine_main.o86
 .group         0x0000000000000000        0x8 dssimengine_main.o86
 .group         0x0000000000000000        0x8 dssimengine_main.o86
 .group         0x0000000000000000        0x8 rtosal_task.o86
 .group         0x0000000000000000        0x8 rtosal_task.o86
 .group         0x0000000000000000        0x8 rtosal_task.o86
 __x86.get_pc_thunk.dx
                0x0000000000000000        0x8 c:/programdata/dspace/ad34425a-2298-40d1-8728-e06238c82a90/compiler/qnx650_520/host/win32/x86/usr/bin/../lib/gcc/i486-pc-nto-qnx6.5.0/5.2.0/crtend.o
 .text.__x86.get_pc_thunk.dx
                0x0000000000000000        0x4 c:/programdata/dspace/ad34425a-2298-40d1-8728-e06238c82a90/compiler/qnx650_520/host/win32/x86/usr/bin/../lib/gcc/i486-pc-nto-qnx6.5.0/5.2.0/crtend.o

Memory Configuration

Name             Origin             Length             Attributes
*default*        0x0000000000000000 0xffffffffffffffff

Linker script and memory map

LOAD C:\ProgramData\dSPACE\ad34425a-2298-40d1-8728-e06238c82a90\Compiler\QNX650_520\target\qnx6/x86/lib/crt1.o
LOAD C:\ProgramData\dSPACE\ad34425a-2298-40d1-8728-e06238c82a90\Compiler\QNX650_520\target\qnx6/x86/lib/crti.o
LOAD c:/programdata/dspace/ad34425a-2298-40d1-8728-e06238c82a90/compiler/qnx650_520/host/win32/x86/usr/bin/../lib/gcc/i486-pc-nto-qnx6.5.0/5.2.0/crtbegin.o
                0x0000000000000000                _DSPACE_START = 0x0
                0x0000000000000000                _DSPACE_START_ = 0x0
                0x00000000000009ce                DS_TARGET_PLATFORM = 0x9ce
START GROUP
LOAD mdladapter_mdlfunctions.o86
LOAD mdlCode_ap.o86
LOAD data_in_ap.o86
LOAD data_out_ap.o86
LOAD fm_entry_ap.o86
LOAD fm_exit_ap.o86
LOAD dssimengine_accesspoint.o86
LOAD dssimengine_api.o86
LOAD dssimengine_main.o86
LOAD rtosal_task.o86
LOAD rtosal_taskap.o86
LOAD rtosal_simengineap.o86
LOAD IOCode_Data.o86
LOAD dssimengine_accesspoint_Voltage_Out.o86
LOAD D:\github\dspace-modelica-example\dSpaceExample\FiveZoneDemo\ModelicaConstant\Components\ds_modelica_constant\ds_modelica_constant_dsrt\ds_modelica_constant.a
LOAD C:\Program Files\dSPACE RCPHIL 2020-A\SCALEXIO\Lib/libdsanalogoutdrv.so
LOAD C:\Program Files\dSPACE RCPHIL 2020-A\SCALEXIO\Lib/libdscandrv.so
LOAD C:\Program Files\dSPACE RCPHIL 2020-A\SCALEXIO\Lib/libdslindrv.so
LOAD C:\Program Files\dSPACE RCPHIL 2020-A\SCALEXIO\Lib/libdsethernetinterfacemanagementdrv.so
END GROUP
LOAD C:\Program Files\dSPACE RCPHIL 2020-A\SCALEXIO\Lib/libDsRtLib.so
LOAD C:\Program Files\dSPACE RCPHIL 2020-A\SCALEXIO\Lib\libm_fastpow.a
LOAD C:\ProgramData\dSPACE\ad34425a-2298-40d1-8728-e06238c82a90\Compiler\QNX650_520\target\qnx6/x86/lib/gcc/5.2.0/libstdc++.so
LOAD C:\ProgramData\dSPACE\ad34425a-2298-40d1-8728-e06238c82a90\Compiler\QNX650_520\target\qnx6/x86/lib/libm.so
LOAD c:/programdata/dspace/ad34425a-2298-40d1-8728-e06238c82a90/compiler/qnx650_520/host/win32/x86/usr/bin/../lib/gcc/i486-pc-nto-qnx6.5.0/5.2.0\libgcc.a
LOAD C:\ProgramData\dSPACE\ad34425a-2298-40d1-8728-e06238c82a90\Compiler\QNX650_520\target\qnx6/x86/lib/libc.so
LOAD C:\ProgramData\dSPACE\ad34425a-2298-40d1-8728-e06238c82a90\Compiler\QNX650_520\target\qnx6/x86/lib\libc.a
LOAD c:/programdata/dspace/ad34425a-2298-40d1-8728-e06238c82a90/compiler/qnx650_520/host/win32/x86/usr/bin/../lib/gcc/i486-pc-nto-qnx6.5.0/5.2.0\libgcc.a
LOAD c:/programdata/dspace/ad34425a-2298-40d1-8728-e06238c82a90/compiler/qnx650_520/host/win32/x86/usr/bin/../lib/gcc/i486-pc-nto-qnx6.5.0/5.2.0/crtend.o
LOAD C:\ProgramData\dSPACE\ad34425a-2298-40d1-8728-e06238c82a90\Compiler\QNX650_520\target\qnx6/x86/lib/crtn.o
                [!provide]                        PROVIDE (__executable_start, 0x8048000)
                0x0000000008048134                . = (0x8048000 + SIZEOF_HEADERS)

.interp         0x0000000008048134       0x14
 *(.interp)
 .interp        0x0000000008048134       0x14 C:\ProgramData\dSPACE\ad34425a-2298-40d1-8728-e06238c82a90\Compiler\QNX650_520\target\qnx6/x86/lib/crt1.o

.note           0x0000000008048148       0x18
 .note          0x0000000008048148       0x18 C:\ProgramData\dSPACE\ad34425a-2298-40d1-8728-e06238c82a90\Compiler\QNX650_520\target\qnx6/x86/lib/crtn.o

.note.gnu.build-id
                0x0000000008048160       0x20
 *(.note.gnu.build-id)
 .note.gnu.build-id
                0x0000000008048160       0x20 C:\ProgramData\dSPACE\ad34425a-2298-40d1-8728-e06238c82a90\Compiler\QNX650_520\target\qnx6/x86/lib/crt1.o

.hash           0x0000000008048180      0x248
 *(.hash)
 .hash          0x0000000008048180      0x248 C:\ProgramData\dSPACE\ad34425a-2298-40d1-8728-e06238c82a90\Compiler\QNX650_520\target\qnx6/x86/lib/crt1.o

.gnu.hash
 *(.gnu.hash)

.dynsym         0x00000000080483c8      0x4d0
 *(.dynsym)
 .dynsym        0x00000000080483c8      0x4d0 C:\ProgramData\dSPACE\ad34425a-2298-40d1-8728-e06238c82a90\Compiler\QNX650_520\target\qnx6/x86/lib/crt1.o

.dynstr         0x0000000008048898      0x9c3
 *(.dynstr)
 .dynstr        0x0000000008048898      0x9c3 C:\ProgramData\dSPACE\ad34425a-2298-40d1-8728-e06238c82a90\Compiler\QNX650_520\target\qnx6/x86/lib/crt1.o

.gnu.version    0x000000000804925c        0x0
 *(.gnu.version)
 .gnu.version   0x000000000804925c        0x0 C:\ProgramData\dSPACE\ad34425a-2298-40d1-8728-e06238c82a90\Compiler\QNX650_520\target\qnx6/x86/lib/crt1.o

.gnu.version_d  0x000000000804925c        0x0
 *(.gnu.version_d)
 .gnu.version_d
                0x000000000804925c        0x0 C:\ProgramData\dSPACE\ad34425a-2298-40d1-8728-e06238c82a90\Compiler\QNX650_520\target\qnx6/x86/lib/crt1.o

.gnu.version_r  0x000000000804925c        0x0
 *(.gnu.version_r)
 .gnu.version_r
                0x000000000804925c        0x0 C:\ProgramData\dSPACE\ad34425a-2298-40d1-8728-e06238c82a90\Compiler\QNX650_520\target\qnx6/x86/lib/crt1.o

.rel.dyn        0x000000000804925c       0x50
 *(.rel.init)
 *(.rel.text .rel.text.* .rel.gnu.linkonce.t.*)
 .rel.text      0x000000000804925c        0x0 C:\ProgramData\dSPACE\ad34425a-2298-40d1-8728-e06238c82a90\Compiler\QNX650_520\target\qnx6/x86/lib/crt1.o
 .rel.text.startup
                0x000000000804925c        0x0 C:\ProgramData\dSPACE\ad34425a-2298-40d1-8728-e06238c82a90\Compiler\QNX650_520\target\qnx6/x86/lib/crt1.o
 *(.rel.fini)
 *(.rel.rodata .rel.rodata.* .rel.gnu.linkonce.r.*)
 .rel.rodata._ZTI18DsCApplicationMain
                0x000000000804925c        0x0 C:\ProgramData\dSPACE\ad34425a-2298-40d1-8728-e06238c82a90\Compiler\QNX650_520\target\qnx6/x86/lib/crt1.o
 .rel.rodata._ZTV18DsCApplicationMain
                0x000000000804925c        0x0 C:\ProgramData\dSPACE\ad34425a-2298-40d1-8728-e06238c82a90\Compiler\QNX650_520\target\qnx6/x86/lib/crt1.o
 .rel.rodata._ZTI24DsCRtosAlPeriodic_Task_1
                0x000000000804925c        0x0 C:\ProgramData\dSPACE\ad34425a-2298-40d1-8728-e06238c82a90\Compiler\QNX650_520\target\qnx6/x86/lib/crt1.o
 .rel.rodata._ZTV24DsCRtosAlPeriodic_Task_1
                0x000000000804925c        0x0 C:\ProgramData\dSPACE\ad34425a-2298-40d1-8728-e06238c82a90\Compiler\QNX650_520\target\qnx6/x86/lib/crt1.o
 *(.rel.data.rel.ro .rel.data.rel.ro.* .rel.gnu.linkonce.d.rel.ro.*)
 *(.rel.data .rel.data.* .rel.gnu.linkonce.d.*)
 *(.rel.tdata .rel.tdata.* .rel.gnu.linkonce.td.*)
 *(.rel.tbss .rel.tbss.* .rel.gnu.linkonce.tb.*)
 *(.rel.ctors)
 *(.rel.dtors)
 *(.rel.got)
 .rel.got       0x000000000804925c       0x30 C:\ProgramData\dSPACE\ad34425a-2298-40d1-8728-e06238c82a90\Compiler\QNX650_520\target\qnx6/x86/lib/crt1.o
 *(.rel.sdata .rel.sdata.* .rel.gnu.linkonce.s.*)
 *(.rel.sbss .rel.sbss.* .rel.gnu.linkonce.sb.*)
 *(.rel.sdata2 .rel.sdata2.* .rel.gnu.linkonce.s2.*)
 *(.rel.sbss2 .rel.sbss2.* .rel.gnu.linkonce.sb2.*)
 *(.rel.bss .rel.bss.* .rel.gnu.linkonce.b.*)
 .rel.bss       0x000000000804928c       0x20 C:\ProgramData\dSPACE\ad34425a-2298-40d1-8728-e06238c82a90\Compiler\QNX650_520\target\qnx6/x86/lib/crt1.o
                [!provide]                        PROVIDE (__rel_iplt_start, .)
 *(.rel.iplt)
 .rel.iplt      0x00000000080492ac        0x0 C:\ProgramData\dSPACE\ad34425a-2298-40d1-8728-e06238c82a90\Compiler\QNX650_520\target\qnx6/x86/lib/crt1.o
                [!provide]                        PROVIDE (__rel_iplt_end, .)
 .rel.eh_frame  0x00000000080492ac        0x0 C:\ProgramData\dSPACE\ad34425a-2298-40d1-8728-e06238c82a90\Compiler\QNX650_520\target\qnx6/x86/lib/crt1.o

.rel.plt        0x00000000080492ac      0x1f0
 *(.rel.plt)
 .rel.plt       0x00000000080492ac      0x1f0 C:\ProgramData\dSPACE\ad34425a-2298-40d1-8728-e06238c82a90\Compiler\QNX650_520\target\qnx6/x86/lib/crt1.o

.init           0x000000000804949c        0xd
 *(SORT(.init))
 .init          0x000000000804949c        0x0 C:\ProgramData\dSPACE\ad34425a-2298-40d1-8728-e06238c82a90\Compiler\QNX650_520\target\qnx6/x86/lib/crti.o
                0x000000000804949c                _init
 .init          0x000000000804949c        0x5 c:/programdata/dspace/ad34425a-2298-40d1-8728-e06238c82a90/compiler/qnx650_520/host/win32/x86/usr/bin/../lib/gcc/i486-pc-nto-qnx6.5.0/5.2.0/crtbegin.o
 .init          0x00000000080494a1        0x5 c:/programdata/dspace/ad34425a-2298-40d1-8728-e06238c82a90/compiler/qnx650_520/host/win32/x86/usr/bin/../lib/gcc/i486-pc-nto-qnx6.5.0/5.2.0/crtend.o
 .init          0x00000000080494a6        0x3 C:\ProgramData\dSPACE\ad34425a-2298-40d1-8728-e06238c82a90\Compiler\QNX650_520\target\qnx6/x86/lib/crtn.o

.plt            0x00000000080494b0      0x3f0
 *(.plt)
 .plt           0x00000000080494b0      0x3f0 C:\ProgramData\dSPACE\ad34425a-2298-40d1-8728-e06238c82a90\Compiler\QNX650_520\target\qnx6/x86/lib/crt1.o
                0x00000000080494c0                _setjmp
                0x00000000080494d0                _ZN7DsCTask10daqServiceEj
                0x00000000080494e0                __register_frame_info
                0x00000000080494f0                _Z18dsrtt_set_rtt_taskP7DsCTask
                0x0000000008049500                _ZN14DsCApplication15createErrorListEv
                0x0000000008049510                calloc
                0x0000000008049520                __sigjmp_prolog
                0x0000000008049530                _ZN7DsCTask11bindTriggerER16DsCErrorListPoolP8DsCTimer
                0x0000000008049540                _ZN14DsCApplication16setIoResourceMapER16DsCErrorListPoolPv
                0x0000000008049550                _ZN11DsCIoDriver7setNameER16DsCErrorListPoolPKc
                0x0000000008049560                _ZN11DsCIoDriver13bindIoChannelER16DsCErrorListPoolP12DsCIoChanneljj
                0x0000000008049570                _ZN14DsCApplicationC2ER16DsCErrorListPool
                0x0000000008049580                _ZN18DsCIoFuncAnalogOut18setNoiseGenerationER16DsCErrorListPoolj
                0x0000000008049590                dsrtt_mp_register_config
                0x00000000080495a0                _ZN12DsCFcnModule12updateInputsEv
                0x00000000080495b0                _ZN7DsCTaskC2ER16DsCErrorListPoolP14DsCApplicationPKcjjjjjjjPS_j
                0x00000000080495c0                __wrap_printf
                0x00000000080495d0                _ZN18DsCIoFuncAnalogOut18setOutputInterfaceER16DsCErrorListPoolj
                0x00000000080495e0                __cxa_finalize
                0x00000000080495f0                _ZN14DsCApplicationD2Ev
                0x0000000008049600                _ZdlPv
                0x0000000008049610                _init_array
                0x0000000008049620                _ZN12DsCFcnModule13updateOutputsEv
                0x0000000008049630                _ZN23DsNApplicationInterface16registerResourceEPKcPv
                0x0000000008049640                _ZN23DsNApplicationInterface12registerApplEPv
                0x0000000008049650                dsrtt_script_service_post_computation
                0x0000000008049660                snprintf
                0x0000000008049670                _ZN12DsCFcnModule10bindDriverER16DsCErrorListPoolP11DsCIoDriver
                0x0000000008049680                _ZN12DsCIoChannel11getInstanceER16DsCErrorListPoolPK22DsSIonetChannelAddress
                0x0000000008049690                atexit
                0x00000000080496a0                _ZN7DsCTask14getCallCounterEv
                0x00000000080496b0                __gxx_personality_v0
                0x00000000080496c0                _Unwind_Resume
                0x00000000080496d0                _ZN7DsCTask18setSimTimeVariableEPd
                0x00000000080496e0                _init_libc
                0x00000000080496f0                _ZN14DsCApplication12setSlowStartER16DsCErrorListPooldd
                0x0000000008049700                _ZN14DsCApplication4stopEv
                0x0000000008049710                _ZN7DsCTaskD2Ev
                0x0000000008049720                __wrap_puts
                0x0000000008049730                _ZN7DsCTask17getOverrunCounterEv
                0x0000000008049740                dsrtt_script_service_pre_computation
                0x0000000008049750                _ZN7DsCTask28setDeadlineViolationFunctionER16DsCErrorListPoolPFvS1_PS_E
                0x0000000008049760                _ZN18DsCIoFuncAnalogOut6createER16DsCErrorListPoolP14DsCApplication
                0x0000000008049770                __wrap_exit
                0x0000000008049780                sprintf
                0x0000000008049790                _fini_array
                0x00000000080497a0                _preinit_array
                0x00000000080497b0                siglongjmp
                0x00000000080497c0                _ZN7DsCTask14getDescriptionEv
                0x00000000080497d0                _ZN14DsCApplication9terminateEv
                0x00000000080497e0                _ZN12DsCFcnModule6createER16DsCErrorListPoolP14DsCApplicationPKc
                0x00000000080497f0                free
                0x0000000008049800                _ZN7DsCTask16setTaskVariablesER16DsCErrorListPoolP25tagDsSKernelTaskVariables
                0x0000000008049810                dsrtt_set_step_size
                0x0000000008049820                _ZN8DsCTimer6createER16DsCErrorListPoolddPKc
                0x0000000008049830                _ZN14DsCApplication18getDiagnosticBlockER16DsCErrorListPool
                0x0000000008049840                _Znwj
                0x0000000008049850                _ZN14DsCApplication12errorMessageEhjjPKcjjS1_S1_z
                0x0000000008049860                _ZN7DsCTask13bindFcnModuleER16DsCErrorListPoolP12DsCFcnModule
                0x0000000008049870                _ZN14DsCApplication25getFailureSimulationBlockER16DsCErrorListPool
                0x0000000008049880                main
                0x0000000008049890                __deregister_frame_info

.iplt           0x00000000080498a0        0x0
 *(.iplt)
 .iplt          0x00000000080498a0        0x0 C:\ProgramData\dSPACE\ad34425a-2298-40d1-8728-e06238c82a90\Compiler\QNX650_520\target\qnx6/x86/lib/crt1.o

.text           0x00000000080498a0     0x4284
                0x00000000080498a0                _btext = .
 *(.text.unlikely .text.*_unlikely .text.unlikely.*)
 .text.unlikely
                0x00000000080498a0        0x0 c:/programdata/dspace/ad34425a-2298-40d1-8728-e06238c82a90/compiler/qnx650_520/host/win32/x86/usr/bin/../lib/gcc/i486-pc-nto-qnx6.5.0/5.2.0/crtbegin.o
 .text.unlikely
                0x00000000080498a0        0x0 mdladapter_mdlfunctions.o86
 .text.unlikely
                0x00000000080498a0        0x0 data_out_ap.o86
 .text.unlikely
                0x00000000080498a0        0x0 fm_entry_ap.o86
 .text.unlikely
                0x00000000080498a0        0x0 fm_exit_ap.o86
 .text.unlikely
                0x00000000080498a0        0x0 dssimengine_accesspoint.o86
 .text.unlikely
                0x00000000080498a0        0x0 dssimengine_api.o86
 .text.unlikely
                0x00000000080498a0        0x0 dssimengine_main.o86
 .text.unlikely
                0x00000000080498a0        0x0 rtosal_task.o86
 .text.unlikely
                0x00000000080498a0        0x0 rtosal_taskap.o86
 .text.unlikely
                0x00000000080498a0        0x0 rtosal_simengineap.o86
 .text.unlikely
                0x00000000080498a0        0x0 IOCode_Data.o86
 .text.unlikely
                0x00000000080498a0        0x0 dssimengine_accesspoint_Voltage_Out.o86
 .text.unlikely
                0x00000000080498a0        0x0 D:\github\dspace-modelica-example\dSpaceExample\FiveZoneDemo\ModelicaConstant\Components\ds_modelica_constant\ds_modelica_constant_dsrt\ds_modelica_constant.a(ds_modelica_constant_dsrtmdlfcn.o86)
 .text.unlikely
                0x00000000080498a0        0x0 D:\github\dspace-modelica-example\dSpaceExample\FiveZoneDemo\ModelicaConstant\Components\ds_modelica_constant\ds_modelica_constant_dsrt\ds_modelica_constant.a(ds_modelica_constant_dsrttf.o86)
 .text.unlikely
                0x00000000080498a0        0x0 D:\github\dspace-modelica-example\dSpaceExample\FiveZoneDemo\ModelicaConstant\Components\ds_modelica_constant\ds_modelica_constant_dsrt\ds_modelica_constant.a(ds_modelica_constant.o86)
 .text.unlikely
                0x00000000080498a0        0x0 D:\github\dspace-modelica-example\dSpaceExample\FiveZoneDemo\ModelicaConstant\Components\ds_modelica_constant\ds_modelica_constant_dsrt\ds_modelica_constant.a(rt_nonfinite.o86)
 .text.unlikely
                0x00000000080498a0        0x0 D:\github\dspace-modelica-example\dSpaceExample\FiveZoneDemo\ModelicaConstant\Components\ds_modelica_constant\ds_modelica_constant_dsrt\ds_modelica_constant.a(dspaceexample_t_dy2600gstg0.o86)
 .text.unlikely
                0x00000000080498a0        0x0 D:\github\dspace-modelica-example\dSpaceExample\FiveZoneDemo\ModelicaConstant\Components\ds_modelica_constant\ds_modelica_constant_dsrt\ds_modelica_constant.a(rtGetInf.o86)
 .text.unlikely
                0x00000000080498a0        0x0 D:\github\dspace-modelica-example\dSpaceExample\FiveZoneDemo\ModelicaConstant\Components\ds_modelica_constant\ds_modelica_constant_dsrt\ds_modelica_constant.a(rtGetNaN.o86)
 .text.unlikely
                0x00000000080498a0        0x0 c:/programdata/dspace/ad34425a-2298-40d1-8728-e06238c82a90/compiler/qnx650_520/host/win32/x86/usr/bin/../lib/gcc/i486-pc-nto-qnx6.5.0/5.2.0/crtend.o
 *(.text.exit .text.exit.*)
 *(.text.startup .text.startup.*)
 .text.startup  0x00000000080498a0       0x31 dssimengine_main.o86
                0x00000000080498a0                _Z32__registerApplDsCApplicationMainv
 *fill*         0x00000000080498d1        0xf 9090
 .text.startup  0x00000000080498e0       0x13 rtosal_simengineap.o86
                0x00000000080498e0                _Z21__registerRTTMPConfigv
 *fill*         0x00000000080498f3        0xd 9090
 .text.startup  0x0000000008049900       0x16 IOCode_Data.o86
                0x0000000008049900                _Z31__registerResourceg_ResourceMapv
 *(.text.hot .text.hot.*)
 *(.text .stub .text.* .gnu.linkonce.t.*)
 *fill*         0x0000000008049916        0x2 9090
 .text          0x0000000008049918       0x91 C:\ProgramData\dSPACE\ad34425a-2298-40d1-8728-e06238c82a90\Compiler\QNX650_520\target\qnx6/x86/lib/crt1.o
                0x0000000008049920                _start
 *fill*         0x00000000080499a9        0x3 9090
 .text          0x00000000080499ac        0x0 C:\ProgramData\dSPACE\ad34425a-2298-40d1-8728-e06238c82a90\Compiler\QNX650_520\target\qnx6/x86/lib/crti.o
 *fill*         0x00000000080499ac        0x4 9090
 .text          0x00000000080499b0      0x1a5 c:/programdata/dspace/ad34425a-2298-40d1-8728-e06238c82a90/compiler/qnx650_520/host/win32/x86/usr/bin/../lib/gcc/i486-pc-nto-qnx6.5.0/5.2.0/crtbegin.o
 .text.__x86.get_pc_thunk.dx
                0x0000000008049b55        0x4 c:/programdata/dspace/ad34425a-2298-40d1-8728-e06238c82a90/compiler/qnx650_520/host/win32/x86/usr/bin/../lib/gcc/i486-pc-nto-qnx6.5.0/5.2.0/crtbegin.o
                0x0000000008049b55                __x86.get_pc_thunk.dx
 .text.__x86.get_pc_thunk.bx
                0x0000000008049b59        0x4 c:/programdata/dspace/ad34425a-2298-40d1-8728-e06238c82a90/compiler/qnx650_520/host/win32/x86/usr/bin/../lib/gcc/i486-pc-nto-qnx6.5.0/5.2.0/crtbegin.o
                0x0000000008049b59                __x86.get_pc_thunk.bx
 *fill*         0x0000000008049b5d        0x3 9090
 .text          0x0000000008049b60       0x45 mdladapter_mdlfunctions.o86
                0x0000000008049b60                ds_modelica_constant_APTerminateSimulation
                0x0000000008049b70                ds_modelica_constant_APLastApplStateStopped
                0x0000000008049b90                ds_modelica_constant_APStopSimulation
                0x0000000008049ba0                ds_modelica_constant_APPrintMessage
 .text          0x0000000008049ba5        0x0 mdlCode_ap.o86
 .text          0x0000000008049ba5        0x0 data_in_ap.o86
 *fill*         0x0000000008049ba5        0xb 9090
 .text          0x0000000008049bb0       0x22 data_out_ap.o86
                0x0000000008049bc0                ap_write_ds_modelica_constant_DataOutport1_P1_S1
 .text          0x0000000008049bd2       0x12 fm_entry_ap.o86
                0x0000000008049bd2                ap_entry_ds_modelica_constant_SIDRoot_TID1
 .text          0x0000000008049be4       0x12 fm_exit_ap.o86
                0x0000000008049be4                ap_exit_ds_modelica_constant_SIDRoot_TID1
 *fill*         0x0000000008049bf6        0xa 9090
 .text          0x0000000008049c00      0x405 dssimengine_accesspoint.o86
                0x0000000008049c00                ApSimEngineOnInit
                0x0000000008049d00                ApSimEngineOnStart
                0x0000000008049d40                ApSimEngineOnStop
                0x0000000008049d60                ApSimEngineOnTerminate
                0x0000000008049d70                ApSimEngineOnUnload
                0x0000000008049d80                ApSimEngineOnInitMdl
                0x0000000008049d90                ApSimEngineOnStartMdl
                0x0000000008049da0                ApSimEngineOnStopMdl
                0x0000000008049db0                ApSimEngineOnTerminateMdl
                0x0000000008049dc0                ApSimEngineOnUnloadMdl
                0x0000000008049dd0                ApSimEngineOnInitImc
                0x0000000008049de0                ApSimEngineOnStartImc
                0x0000000008049df0                ApSimEngineOnStopImc
                0x0000000008049e00                ApSimEngineOnTerminateImc
                0x0000000008049e10                ApSimEngineOnUnloadImc
                0x0000000008049e20                ApSimEngineOnInitIoPreRtosInit
                0x0000000008049e60                ApSimEngineOnInitIoPostRtosInit
                0x0000000008049e80                ApSimEngineOnInitHwDiagnostics
                0x0000000008049f10                ApSimEngineOnStartIo
                0x0000000008049f50                ApSimEngineOnStopIo
                0x0000000008049f60                ApSimEngineOnTerminateIo
                0x0000000008049f70                ApSimEngineOnUnloadIo
                0x0000000008049f80                ApSimEngineOnInitRtos
                0x0000000008049fb0                ApSimEngineOnStartRtos
                0x0000000008049fc0                ApSimEngineOnStopRtos
                0x0000000008049fd0                ApSimEngineOnTerminateRtos
                0x0000000008049fe0                ApSimEngineOnUnloadRtos
                0x0000000008049ff0                ApSimEngineIdle
                0x000000000804a000                _Z22ApSimEngineRunTimeInitR16DsCErrorListPooli
 *fill*         0x000000000804a005        0xb 9090
 .text          0x000000000804a010       0x56 dssimengine_api.o86
                0x000000000804a010                _Z25SimEngineLastApplStateGetv
                0x000000000804a020                _Z17SimEngineApplStopv
                0x000000000804a040                _Z22SimEngineApplTerminatev
                0x000000000804a060                _Z16SimEngineApplGetv
 *fill*         0x000000000804a066        0xa 9090
 .text          0x000000000804a070      0x1a3 dssimengine_main.o86
                0x000000000804a070                destroyApplication
                0x000000000804a0a0                getApplicationErrorList
                0x000000000804a0b0                _ZN18DsCApplicationMainD1Ev
                0x000000000804a0b0                _ZN18DsCApplicationMainD2Ev
                0x000000000804a0d0                _ZN18DsCApplicationMainD0Ev
                0x000000000804a100                createApplication
                0x000000000804a150                _ZN18DsCApplicationMain6onInitER16DsCErrorListPool
                0x000000000804a170                _ZN18DsCApplicationMain7onStartER16DsCErrorListPool
                0x000000000804a190                _ZN18DsCApplicationMain6onStopER16DsCErrorListPool
                0x000000000804a1b0                _ZN18DsCApplicationMain11onTerminateER16DsCErrorListPool
                0x000000000804a1d0                _ZN18DsCApplicationMain8onUnloadER16DsCErrorListPool
                0x000000000804a1e0                _ZN18DsCApplicationMain6onIdleER16DsCErrorListPool
                0x000000000804a1f0                _ZN18DsCApplicationMainC1ER16DsCErrorListPool
                0x000000000804a1f0                _ZN18DsCApplicationMainC2ER16DsCErrorListPool
 *fill*         0x000000000804a213        0xd 9090
 .text          0x000000000804a220      0x2ea rtosal_task.o86
                0x000000000804a220                _ZN24DsCRtosAlPeriodic_Task_1D1Ev
                0x000000000804a220                _ZN24DsCRtosAlPeriodic_Task_1D2Ev
                0x000000000804a230                _ZN24DsCRtosAlPeriodic_Task_1D0Ev
                0x000000000804a260                _ZN24DsCRtosAlPeriodic_Task_15onRunER16DsCErrorListPool
                0x000000000804a2a0                _ZN24DsCRtosAlPeriodic_Task_19onOverrunER16DsCErrorListPool
                0x000000000804a330                _ZN24DsCRtosAlPeriodic_Task_1C2ER16DsCErrorListPoolP14DsCApplicationPKcjjjjjjjP7DsCTaskj
                0x000000000804a330                _ZN24DsCRtosAlPeriodic_Task_1C1ER16DsCErrorListPoolP14DsCApplicationPKcjjjjjjjP7DsCTaskj
                0x000000000804a380                _ZN24DsCRtosAlPeriodic_Task_16createER16DsCErrorListPoolP14DsCApplicationPKcjjjjjjjP7DsCTaskj
                0x000000000804a400                _Z37RtosAlDefaultDeadlineViolationHandlerR16DsCErrorListPoolP7DsCTask
                0x000000000804a470                _Z20RtosAlHandleOverrunsP7DsCTaski
 *fill*         0x000000000804a50a        0x6 9090
 .text          0x000000000804a510       0x78 rtosal_taskap.o86
                0x000000000804a510                RtosAlTask_01_TaskEntry
                0x000000000804a520                RtosAlTask_01_TaskExit
 *fill*         0x000000000804a588        0x8 9090
 .text          0x000000000804a590      0x1f4 rtosal_simengineap.o86
                0x000000000804a590                _Z12RtosAlOnInitR16DsCErrorListPool
                0x000000000804a640                _Z13RtosAlOnStartR16DsCErrorListPool
 .text          0x000000000804a784        0x0 IOCode_Data.o86
 *fill*         0x000000000804a784        0xc 9090
 .text          0x000000000804a790       0xf8 dssimengine_accesspoint_Voltage_Out.o86
                0x000000000804a790                _Z35ApSimEngineRunTimeInit_ctlcBODY_0_yR16DsCErrorListPool
                0x000000000804a7b0                _Z33ApSimEngineOnStartIo_ctlcBODY_0_yR16DsCErrorListPool
                0x000000000804a7d0                _Z32ApSimEngineOnStopIo_ctlcBODY_0_yR16DsCErrorListPool
                0x000000000804a7f0                _Z43ApSimEngineOnInitIoPreRtosInit_ctlcBODY_2_yR16DsCErrorListPoolP14DsCApplication
                0x000000000804a810                _Z44ApSimEngineOnInitIoPostRtosInit_ctlcBODY_0_yR16DsCErrorListPool
 *fill*         0x000000000804a888        0x8 9090
 .text          0x000000000804a890      0x1e3 D:\github\dspace-modelica-example\dSpaceExample\FiveZoneDemo\ModelicaConstant\Components\ds_modelica_constant\ds_modelica_constant_dsrt\ds_modelica_constant.a(ds_modelica_constant_dsrtmdlfcn.o86)
                0x000000000804a890                ds_modelica_constant_DSRTInitMdl
                0x000000000804a8e0                ds_modelica_constant_DSRTStartMdl
                0x000000000804a960                ds_modelica_constant_DSRTStopMdl
                0x000000000804a9b0                ds_modelica_constant_DSRTCheckForErrorStatus
                0x000000000804a9f0                ds_modelica_constant_DSRTCheckForSimulationStopCondition
 *fill*         0x000000000804aa73        0xd 9090
 .text          0x000000000804aa80       0x15 D:\github\dspace-modelica-example\dSpaceExample\FiveZoneDemo\ModelicaConstant\Components\ds_modelica_constant\ds_modelica_constant_dsrt\ds_modelica_constant.a(ds_modelica_constant_dsrttf.o86)
                0x000000000804aa80                ds_modelica_constant_DSRTMdlOutputs0
                0x000000000804aa90                ds_modelica_constant_DSRTMdlUpdate0
 *fill*         0x000000000804aa95        0xb 9090
 .text          0x000000000804aaa0      0x505 D:\github\dspace-modelica-example\dSpaceExample\FiveZoneDemo\ModelicaConstant\Components\ds_modelica_constant\ds_modelica_constant_dsrt\ds_modelica_constant.a(ds_modelica_constant.o86)
                0x000000000804aaa0                ds_modelica_constant_output
                0x000000000804ab00                ds_modelica_constant_update
                0x000000000804abb0                ds_modelica_constant_initialize
                0x000000000804af90                ds_modelica_constant_terminate
 .text          0x000000000804afa5        0x0 D:\github\dspace-modelica-example\dSpaceExample\FiveZoneDemo\ModelicaConstant\Components\ds_modelica_constant\ds_modelica_constant_dsrt\ds_modelica_constant.a(ds_modelica_constant_data.o86)
 .text          0x000000000804afa5       0x27 D:\github\dspace-modelica-example\dSpaceExample\FiveZoneDemo\ModelicaConstant\Components\ds_modelica_constant\ds_modelica_constant_dsrt\ds_modelica_constant.a(ds_modelica_constant_dsrtvdf.o86)
                0x000000000804afc5                ds_modelica_constant_rti_init_trc_pointers
 *fill*         0x000000000804afcc        0x4 9090
 .text          0x000000000804afd0      0x12a D:\github\dspace-modelica-example\dSpaceExample\FiveZoneDemo\ModelicaConstant\Components\ds_modelica_constant\ds_modelica_constant_dsrt\ds_modelica_constant.a(rt_nonfinite.o86)
                0x000000000804afd0                rt_InitInfAndNaN
                0x000000000804b040                rtIsInf
                0x000000000804b070                rtIsInfF
                0x000000000804b090                rtIsNaN
                0x000000000804b0d0                rtIsNaNF
 *fill*         0x000000000804b0fa        0x6 9090
 .text          0x000000000804b100     0x220b D:\github\dspace-modelica-example\dSpaceExample\FiveZoneDemo\ModelicaConstant\Components\ds_modelica_constant\ds_modelica_constant_dsrt\ds_modelica_constant.a(dspaceexample_t_dy2600gstg0.o86)
                0x000000000804d2c0                dspaceexample_t_dy2600gstg0
 *fill*         0x000000000804d30b        0x5 9090
 .text          0x000000000804d310       0x37 D:\github\dspace-modelica-example\dSpaceExample\FiveZoneDemo\ModelicaConstant\Components\ds_modelica_constant\ds_modelica_constant_dsrt\ds_modelica_constant.a(rtGetInf.o86)
                0x000000000804d310                rtGetInf
                0x000000000804d320                rtGetInfF
                0x000000000804d330                rtGetMinusInf
                0x000000000804d340                rtGetMinusInfF
 *fill*         0x000000000804d347        0x9 9090
 .text          0x000000000804d350       0x17 D:\github\dspace-modelica-example\dSpaceExample\FiveZoneDemo\ModelicaConstant\Components\ds_modelica_constant\ds_modelica_constant_dsrt\ds_modelica_constant.a(rtGetNaN.o86)
                0x000000000804d350                rtGetNaN
                0x000000000804d360                rtGetNaNF
 *fill*         0x000000000804d367        0x1 9090
 .text          0x000000000804d368        0xb C:\Program Files\dSPACE RCPHIL 2020-A\SCALEXIO\Lib\libm_fastpow.a(w_pow.o)
                0x000000000804d368                pow
 *fill*         0x000000000804d373        0x1 9090
 .text          0x000000000804d374      0x75d C:\Program Files\dSPACE RCPHIL 2020-A\SCALEXIO\Lib\libm_fastpow.a(e_pow.o)
                0x000000000804d374                __ieee754_pow
 *fill*         0x000000000804dad1        0xf 9090
 .text          0x000000000804dae0       0x43 c:/programdata/dspace/ad34425a-2298-40d1-8728-e06238c82a90/compiler/qnx650_520/host/win32/x86/usr/bin/../lib/gcc/i486-pc-nto-qnx6.5.0/5.2.0/crtend.o
 *fill*         0x000000000804db23        0x1 9090
 .text          0x000000000804db24        0x0 C:\ProgramData\dSPACE\ad34425a-2298-40d1-8728-e06238c82a90\Compiler\QNX650_520\target\qnx6/x86/lib/crtn.o
 *(.gnu.warning)

.fini           0x000000000804db24        0x8
 *(SORT(.fini))
 .fini          0x000000000804db24        0x0 C:\ProgramData\dSPACE\ad34425a-2298-40d1-8728-e06238c82a90\Compiler\QNX650_520\target\qnx6/x86/lib/crti.o
                0x000000000804db24                _fini
 .fini          0x000000000804db24        0x5 c:/programdata/dspace/ad34425a-2298-40d1-8728-e06238c82a90/compiler/qnx650_520/host/win32/x86/usr/bin/../lib/gcc/i486-pc-nto-qnx6.5.0/5.2.0/crtbegin.o
 .fini          0x000000000804db29        0x3 C:\ProgramData\dSPACE\ad34425a-2298-40d1-8728-e06238c82a90\Compiler\QNX650_520\target\qnx6/x86/lib/crtn.o
                [!provide]                        PROVIDE (__etext, .)
                [!provide]                        PROVIDE (_etext, .)
                [!provide]                        PROVIDE (etext, .)

.rodata         0x000000000804db40      0xbe0
 *(.rodata .rodata.* .gnu.linkonce.r.*)
 .rodata._ZTS18DsCApplicationMain
                0x000000000804db40       0x15 dssimengine_main.o86
                0x000000000804db40                _ZTS18DsCApplicationMain
 *fill*         0x000000000804db55        0x3 
 .rodata._ZTI18DsCApplicationMain
                0x000000000804db58        0xc dssimengine_main.o86
                0x000000000804db58                _ZTI18DsCApplicationMain
 .rodata._ZTV18DsCApplicationMain
                0x000000000804db64       0x28 dssimengine_main.o86
                0x000000000804db64                _ZTV18DsCApplicationMain
 .rodata.str1.1
                0x000000000804db8c       0x28 dssimengine_main.o86
 .rodata.str1.1
                0x000000000804dbb4       0x2a rtosal_task.o86
 *fill*         0x000000000804dbde        0x2 
 .rodata.str1.4
                0x000000000804dbe0       0xc6 rtosal_task.o86
 *fill*         0x000000000804dca6       0x1a 
 .rodata        0x000000000804dcc0       0x46 rtosal_task.o86
 *fill*         0x000000000804dd06        0x2 
 .rodata._ZTS24DsCRtosAlPeriodic_Task_1
                0x000000000804dd08       0x1b rtosal_task.o86
                0x000000000804dd08                _ZTS24DsCRtosAlPeriodic_Task_1
 *fill*         0x000000000804dd23        0x1 
 .rodata._ZTI24DsCRtosAlPeriodic_Task_1
                0x000000000804dd24        0xc rtosal_task.o86
                0x000000000804dd24                _ZTI24DsCRtosAlPeriodic_Task_1
 .rodata._ZTV24DsCRtosAlPeriodic_Task_1
                0x000000000804dd30       0x18 rtosal_task.o86
                0x000000000804dd30                _ZTV24DsCRtosAlPeriodic_Task_1
 .rodata.cst4   0x000000000804dd48        0x4 rtosal_taskap.o86
 *fill*         0x000000000804dd4c        0x4 
 .rodata.cst8   0x000000000804dd50        0x8 rtosal_taskap.o86
 .rodata.str1.4
                0x000000000804dd58       0x62 rtosal_simengineap.o86
 .rodata.str1.1
                0x000000000804ddba       0x36 rtosal_simengineap.o86
 .rodata        0x000000000804ddf0        0xe rtosal_simengineap.o86
 *fill*         0x000000000804ddfe        0x2 
 .rodata.cst8   0x000000000804de00        0x8 rtosal_simengineap.o86
 .rodata.str1.1
                0x000000000804de08        0xe IOCode_Data.o86
 .rodata.str1.1
                0x000000000804de16        0x2 dssimengine_accesspoint_Voltage_Out.o86
 .rodata.str1.1
                0x000000000804de18       0x14 D:\github\dspace-modelica-example\dSpaceExample\FiveZoneDemo\ModelicaConstant\Components\ds_modelica_constant\ds_modelica_constant_dsrt\ds_modelica_constant.a(ds_modelica_constant_dsrtmdlfcn.o86)
 .rodata.str1.4
                0x000000000804de2c       0x91 D:\github\dspace-modelica-example\dSpaceExample\FiveZoneDemo\ModelicaConstant\Components\ds_modelica_constant\ds_modelica_constant_dsrt\ds_modelica_constant.a(ds_modelica_constant_dsrtmdlfcn.o86)
 .rodata.str1.1
                0x000000000804debd       0x18 D:\github\dspace-modelica-example\dSpaceExample\FiveZoneDemo\ModelicaConstant\Components\ds_modelica_constant\ds_modelica_constant_dsrt\ds_modelica_constant.a(ds_modelica_constant.o86)
 *fill*         0x000000000804ded5        0x3 
 .rodata.str1.4
                0x000000000804ded8       0x2d D:\github\dspace-modelica-example\dSpaceExample\FiveZoneDemo\ModelicaConstant\Components\ds_modelica_constant\ds_modelica_constant_dsrt\ds_modelica_constant.a(ds_modelica_constant.o86)
 *fill*         0x000000000804df05        0x3 
 .rodata        0x000000000804df08        0x4 D:\github\dspace-modelica-example\dSpaceExample\FiveZoneDemo\ModelicaConstant\Components\ds_modelica_constant\ds_modelica_constant_dsrt\ds_modelica_constant.a(ds_modelica_constant.o86)
                0x000000000804df08                ds_modelica_constant_M
 *fill*         0x000000000804df0c        0x4 
 .rodata.cst8   0x000000000804df10       0x18 D:\github\dspace-modelica-example\dSpaceExample\FiveZoneDemo\ModelicaConstant\Components\ds_modelica_constant\ds_modelica_constant_dsrt\ds_modelica_constant.a(ds_modelica_constant.o86)
                                         0x20 (size before relaxing)
 .rodata.str1.4
                0x000000000804df28      0x5d8 D:\github\dspace-modelica-example\dSpaceExample\FiveZoneDemo\ModelicaConstant\Components\ds_modelica_constant\ds_modelica_constant_dsrt\ds_modelica_constant.a(dspaceexample_t_dy2600gstg0.o86)
                                        0x5d7 (size before relaxing)
 .rodata.str1.1
                0x000000000804e500       0x7a D:\github\dspace-modelica-example\dSpaceExample\FiveZoneDemo\ModelicaConstant\Components\ds_modelica_constant\ds_modelica_constant_dsrt\ds_modelica_constant.a(dspaceexample_t_dy2600gstg0.o86)
                                         0x8d (size before relaxing)
 *fill*         0x000000000804e57a        0x6 
 .rodata.cst8   0x000000000804e580       0x80 D:\github\dspace-modelica-example\dSpaceExample\FiveZoneDemo\ModelicaConstant\Components\ds_modelica_constant\ds_modelica_constant_dsrt\ds_modelica_constant.a(dspaceexample_t_dy2600gstg0.o86)
                                         0x88 (size before relaxing)
 .rodata.cst16  0x000000000804e600       0x10 D:\github\dspace-modelica-example\dSpaceExample\FiveZoneDemo\ModelicaConstant\Components\ds_modelica_constant\ds_modelica_constant_dsrt\ds_modelica_constant.a(dspaceexample_t_dy2600gstg0.o86)
 .rodata.cst8   0x000000000804e610       0x10 D:\github\dspace-modelica-example\dSpaceExample\FiveZoneDemo\ModelicaConstant\Components\ds_modelica_constant\ds_modelica_constant_dsrt\ds_modelica_constant.a(rtGetInf.o86)
 .rodata.cst4   0x000000000804e620        0x8 D:\github\dspace-modelica-example\dSpaceExample\FiveZoneDemo\ModelicaConstant\Components\ds_modelica_constant\ds_modelica_constant_dsrt\ds_modelica_constant.a(rtGetInf.o86)
 .rodata.cst8   0x000000000804e628        0x8 D:\github\dspace-modelica-example\dSpaceExample\FiveZoneDemo\ModelicaConstant\Components\ds_modelica_constant\ds_modelica_constant_dsrt\ds_modelica_constant.a(rtGetNaN.o86)
 .rodata.cst4   0x000000000804e630        0x4 D:\github\dspace-modelica-example\dSpaceExample\FiveZoneDemo\ModelicaConstant\Components\ds_modelica_constant\ds_modelica_constant_dsrt\ds_modelica_constant.a(rtGetNaN.o86)
 *fill*         0x000000000804e634        0x4 
 .rodata        0x000000000804e638       0x30 C:\Program Files\dSPACE RCPHIL 2020-A\SCALEXIO\Lib\libm_fastpow.a(e_pow.o)
 .rodata.cst4   0x000000000804e668       0x24 C:\Program Files\dSPACE RCPHIL 2020-A\SCALEXIO\Lib\libm_fastpow.a(e_pow.o)
                                         0x28 (size before relaxing)
 *fill*         0x000000000804e68c        0x4 
 .rodata.cst8   0x000000000804e690       0x90 C:\Program Files\dSPACE RCPHIL 2020-A\SCALEXIO\Lib\libm_fastpow.a(e_pow.o)

.rodata1
 *(.rodata1)

.sdata2
 *(.sdata2 .sdata2.* .gnu.linkonce.s2.*)

.sbss2
 *(.sbss2 .sbss2.* .gnu.linkonce.sb2.*)

.eh_frame_hdr   0x000000000804e720      0x37c
 *(.eh_frame_hdr)
 .eh_frame_hdr  0x000000000804e720      0x37c mdladapter_mdlfunctions.o86

.eh_frame       0x000000000804ea9c     0x1c64
 *(.eh_frame)
 .eh_frame      0x000000000804ea9c       0x3c C:\ProgramData\dSPACE\ad34425a-2298-40d1-8728-e06238c82a90\Compiler\QNX650_520\target\qnx6/x86/lib/crt1.o
                                         0x40 (size before relaxing)
 .eh_frame      0x000000000804ead8        0x0 c:/programdata/dspace/ad34425a-2298-40d1-8728-e06238c82a90/compiler/qnx650_520/host/win32/x86/usr/bin/../lib/gcc/i486-pc-nto-qnx6.5.0/5.2.0/crtbegin.o
 .eh_frame      0x000000000804ead8       0x64 mdladapter_mdlfunctions.o86
 .eh_frame      0x000000000804eb3c       0x20 data_out_ap.o86
                                         0x34 (size before relaxing)
 .eh_frame      0x000000000804eb5c       0x28 fm_entry_ap.o86
                                         0x3c (size before relaxing)
 .eh_frame      0x000000000804eb84       0x28 fm_exit_ap.o86
                                         0x3c (size before relaxing)
 .eh_frame      0x000000000804ebac      0x49c dssimengine_accesspoint.o86
                                        0x4b0 (size before relaxing)
 .eh_frame      0x000000000804f048       0x70 dssimengine_api.o86
                                         0x84 (size before relaxing)
 .eh_frame      0x000000000804f0b8      0x268 dssimengine_main.o86
 .eh_frame      0x000000000804f320      0x49c rtosal_task.o86
                                        0x4b8 (size before relaxing)
 .eh_frame      0x000000000804f7bc       0x38 rtosal_taskap.o86
                                         0x4c (size before relaxing)
 .eh_frame      0x000000000804f7f4      0x278 rtosal_simengineap.o86
                                        0x28c (size before relaxing)
 .eh_frame      0x000000000804fa6c       0x2c IOCode_Data.o86
                                         0x40 (size before relaxing)
 .eh_frame      0x000000000804fa98      0x12c dssimengine_accesspoint_Voltage_Out.o86
                                        0x140 (size before relaxing)
 .eh_frame      0x000000000804fbc4      0x204 D:\github\dspace-modelica-example\dSpaceExample\FiveZoneDemo\ModelicaConstant\Components\ds_modelica_constant\ds_modelica_constant_dsrt\ds_modelica_constant.a(ds_modelica_constant_dsrtmdlfcn.o86)
                                        0x218 (size before relaxing)
 .eh_frame      0x000000000804fdc8       0x20 D:\github\dspace-modelica-example\dSpaceExample\FiveZoneDemo\ModelicaConstant\Components\ds_modelica_constant\ds_modelica_constant_dsrt\ds_modelica_constant.a(ds_modelica_constant_dsrttf.o86)
                                         0x34 (size before relaxing)
 .eh_frame      0x000000000804fde8      0x10c D:\github\dspace-modelica-example\dSpaceExample\FiveZoneDemo\ModelicaConstant\Components\ds_modelica_constant\ds_modelica_constant_dsrt\ds_modelica_constant.a(ds_modelica_constant.o86)
                                        0x120 (size before relaxing)
 .eh_frame      0x000000000804fef4       0x20 D:\github\dspace-modelica-example\dSpaceExample\FiveZoneDemo\ModelicaConstant\Components\ds_modelica_constant\ds_modelica_constant_dsrt\ds_modelica_constant.a(ds_modelica_constant_dsrtvdf.o86)
                                         0x34 (size before relaxing)
 .eh_frame      0x000000000804ff14       0x80 D:\github\dspace-modelica-example\dSpaceExample\FiveZoneDemo\ModelicaConstant\Components\ds_modelica_constant\ds_modelica_constant_dsrt\ds_modelica_constant.a(rt_nonfinite.o86)
                                         0x94 (size before relaxing)
 .eh_frame      0x000000000804ff94      0x708 D:\github\dspace-modelica-example\dSpaceExample\FiveZoneDemo\ModelicaConstant\Components\ds_modelica_constant\ds_modelica_constant_dsrt\ds_modelica_constant.a(dspaceexample_t_dy2600gstg0.o86)
                                        0x71c (size before relaxing)
 .eh_frame      0x000000000805069c       0x40 D:\github\dspace-modelica-example\dSpaceExample\FiveZoneDemo\ModelicaConstant\Components\ds_modelica_constant\ds_modelica_constant_dsrt\ds_modelica_constant.a(rtGetInf.o86)
                                         0x54 (size before relaxing)
 .eh_frame      0x00000000080506dc       0x20 D:\github\dspace-modelica-example\dSpaceExample\FiveZoneDemo\ModelicaConstant\Components\ds_modelica_constant\ds_modelica_constant_dsrt\ds_modelica_constant.a(rtGetNaN.o86)
                                         0x34 (size before relaxing)
 .eh_frame      0x00000000080506fc        0x4 c:/programdata/dspace/ad34425a-2298-40d1-8728-e06238c82a90/compiler/qnx650_520/host/win32/x86/usr/bin/../lib/gcc/i486-pc-nto-qnx6.5.0/5.2.0/crtend.o

.gcc_except_table
                0x0000000008050700       0x20
 *(.gcc_except_table .gcc_except_table.*)
 .gcc_except_table
                0x0000000008050700       0x10 dssimengine_main.o86
 .gcc_except_table
                0x0000000008050710       0x10 rtosal_task.o86

.exception_ranges
 *(.exception_ranges .exception_ranges*)
                0x0000000008050720                . = (ALIGN (0x1000) - ((0x1000 - .) & 0xfff))
                0x0000000008051720                . = DATA_SEGMENT_ALIGN (0x1000, 0x1000)

.eh_frame
 *(.eh_frame)

.gcc_except_table
 *(.gcc_except_table .gcc_except_table.*)

.exception_ranges
 *(.exception_ranges .exception_ranges*)

.tdata
 *(.tdata .tdata.* .gnu.linkonce.td.*)

.tbss
 *(.tbss .tbss.* .gnu.linkonce.tb.*)
 *(.tcommon)

.preinit_array  0x0000000008051720        0x0
                0x0000000008051720                PROVIDE (__preinit_array_start, .)
 *(.preinit_array)
                0x0000000008051720                PROVIDE (__preinit_array_end, .)

.init_array     0x0000000008051720        0x0
                0x0000000008051720                PROVIDE (__init_array_start, .)
 *(SORT(.init_array.*))
 *(.init_array)
                0x0000000008051720                PROVIDE (__init_array_end, .)

.fini_array     0x0000000008051720        0x0
                0x0000000008051720                PROVIDE (__fini_array_start, .)
 *(SORT(.fini_array.*))
 *(.fini_array)
                0x0000000008051720                PROVIDE (__fini_array_end, .)

.ctors          0x0000000008051720       0x18
 *crtbegin.o(.ctors)
 .ctors         0x0000000008051720        0x4 c:/programdata/dspace/ad34425a-2298-40d1-8728-e06238c82a90/compiler/qnx650_520/host/win32/x86/usr/bin/../lib/gcc/i486-pc-nto-qnx6.5.0/5.2.0/crtbegin.o
 *crtbegin?.o(.ctors)
 *(EXCLUDE_FILE(*crtend?.o *crtend.o) .ctors)
 .ctors         0x0000000008051724        0x8 dssimengine_main.o86
 .ctors         0x000000000805172c        0x4 rtosal_simengineap.o86
 .ctors         0x0000000008051730        0x4 IOCode_Data.o86
 *(SORT(.ctors.*))
 *(.ctors)
 .ctors         0x0000000008051734        0x4 c:/programdata/dspace/ad34425a-2298-40d1-8728-e06238c82a90/compiler/qnx650_520/host/win32/x86/usr/bin/../lib/gcc/i486-pc-nto-qnx6.5.0/5.2.0/crtend.o

.dtors          0x0000000008051738        0x8
 *crtbegin.o(.dtors)
 .dtors         0x0000000008051738        0x4 c:/programdata/dspace/ad34425a-2298-40d1-8728-e06238c82a90/compiler/qnx650_520/host/win32/x86/usr/bin/../lib/gcc/i486-pc-nto-qnx6.5.0/5.2.0/crtbegin.o
 *crtbegin?.o(.dtors)
 *(EXCLUDE_FILE(*crtend?.o *crtend.o) .dtors)
 *(SORT(.dtors.*))
 *(.dtors)
 .dtors         0x000000000805173c        0x4 c:/programdata/dspace/ad34425a-2298-40d1-8728-e06238c82a90/compiler/qnx650_520/host/win32/x86/usr/bin/../lib/gcc/i486-pc-nto-qnx6.5.0/5.2.0/crtend.o
                0x000000000805173c                __DTOR_END__

.jcr            0x0000000008051740        0x4
 *(.jcr)
 .jcr           0x0000000008051740        0x0 c:/programdata/dspace/ad34425a-2298-40d1-8728-e06238c82a90/compiler/qnx650_520/host/win32/x86/usr/bin/../lib/gcc/i486-pc-nto-qnx6.5.0/5.2.0/crtbegin.o
 .jcr           0x0000000008051740        0x4 c:/programdata/dspace/ad34425a-2298-40d1-8728-e06238c82a90/compiler/qnx650_520/host/win32/x86/usr/bin/../lib/gcc/i486-pc-nto-qnx6.5.0/5.2.0/crtend.o

.data.rel.ro
 *(.data.rel.ro.local* .gnu.linkonce.d.rel.ro.local.*)
 *(.data.rel.ro .data.rel.ro.* .gnu.linkonce.d.rel.ro.*)

.dynamic        0x0000000008051744       0xf0
 *(.dynamic)
 .dynamic       0x0000000008051744       0xf0 C:\ProgramData\dSPACE\ad34425a-2298-40d1-8728-e06238c82a90\Compiler\QNX650_520\target\qnx6/x86/lib/crt1.o
                0x0000000008051744                _DYNAMIC
                0x0000000008051834                . = DATA_SEGMENT_RELRO_END (., 0x0)

.data           0x0000000008051840    0xd7770
 *(.data .data.* .gnu.linkonce.d.*)
 .data          0x0000000008051840        0x0 C:\ProgramData\dSPACE\ad34425a-2298-40d1-8728-e06238c82a90\Compiler\QNX650_520\target\qnx6/x86/lib/crt1.o
 .data          0x0000000008051840        0x0 C:\ProgramData\dSPACE\ad34425a-2298-40d1-8728-e06238c82a90\Compiler\QNX650_520\target\qnx6/x86/lib/crti.o
 .data          0x0000000008051840        0x0 c:/programdata/dspace/ad34425a-2298-40d1-8728-e06238c82a90/compiler/qnx650_520/host/win32/x86/usr/bin/../lib/gcc/i486-pc-nto-qnx6.5.0/5.2.0/crtbegin.o
 .data.rel.local
                0x0000000008051840        0x4 c:/programdata/dspace/ad34425a-2298-40d1-8728-e06238c82a90/compiler/qnx650_520/host/win32/x86/usr/bin/../lib/gcc/i486-pc-nto-qnx6.5.0/5.2.0/crtbegin.o
                0x0000000008051840                __dso_handle
 .data          0x0000000008051844        0x0 mdladapter_mdlfunctions.o86
 .data          0x0000000008051844        0x0 mdlCode_ap.o86
 .data          0x0000000008051844        0x0 data_in_ap.o86
 .data          0x0000000008051844        0x0 data_out_ap.o86
 .data          0x0000000008051844        0x0 fm_entry_ap.o86
 .data          0x0000000008051844        0x0 fm_exit_ap.o86
 .data          0x0000000008051844        0x1 dssimengine_accesspoint.o86
                0x0000000008051844                isFirstSimulation
 .data          0x0000000008051845        0x0 dssimengine_api.o86
 *fill*         0x0000000008051845       0x1b 
 .data          0x0000000008051860       0x34 dssimengine_main.o86
                0x0000000008051860                ApplInfoDsCApplicationMain
                0x0000000008051888                DsFwIfVersion
                0x000000000805188c                DsApplIfVersion
                0x0000000008051890                SimEngineLastApplState
 .data          0x0000000008051894        0x0 rtosal_task.o86
 .data          0x0000000008051894        0x0 rtosal_taskap.o86
 *fill*         0x0000000008051894        0x4 
 .data          0x0000000008051898       0x10 rtosal_simengineap.o86
                0x0000000008051898                ScalingFactor
                0x00000000080518a0                g_dsrtt_comm_enabled
 *fill*         0x00000000080518a8       0x18 
 .data          0x00000000080518c0       0x34 IOCode_Data.o86
                0x00000000080518c0                g_ResourceMap
 .data          0x00000000080518f4        0x0 dssimengine_accesspoint_Voltage_Out.o86
 .data          0x00000000080518f4        0x0 D:\github\dspace-modelica-example\dSpaceExample\FiveZoneDemo\ModelicaConstant\Components\ds_modelica_constant\ds_modelica_constant_dsrt\ds_modelica_constant.a(ds_modelica_constant_dsrtmdlfcn.o86)
 .data          0x00000000080518f4        0x0 D:\github\dspace-modelica-example\dSpaceExample\FiveZoneDemo\ModelicaConstant\Components\ds_modelica_constant\ds_modelica_constant_dsrt\ds_modelica_constant.a(ds_modelica_constant_dsrttf.o86)
 .data          0x00000000080518f4        0x0 D:\github\dspace-modelica-example\dSpaceExample\FiveZoneDemo\ModelicaConstant\Components\ds_modelica_constant\ds_modelica_constant_dsrt\ds_modelica_constant.a(ds_modelica_constant.o86)
 *fill*         0x00000000080518f4        0xc 
 .data          0x0000000008051900       0x28 D:\github\dspace-modelica-example\dSpaceExample\FiveZoneDemo\ModelicaConstant\Components\ds_modelica_constant\ds_modelica_constant_dsrt\ds_modelica_constant.a(ds_modelica_constant_data.o86)
                0x0000000008051900                ds_modelica_constant_P
 .data          0x0000000008051928        0x0 D:\github\dspace-modelica-example\dSpaceExample\FiveZoneDemo\ModelicaConstant\Components\ds_modelica_constant\ds_modelica_constant_dsrt\ds_modelica_constant.a(ds_modelica_constant_dsrtvdf.o86)
 .data          0x0000000008051928        0x0 D:\github\dspace-modelica-example\dSpaceExample\FiveZoneDemo\ModelicaConstant\Components\ds_modelica_constant\ds_modelica_constant_dsrt\ds_modelica_constant.a(rt_nonfinite.o86)
 *fill*         0x0000000008051928       0x18 
 .data          0x0000000008051940    0xd7670 D:\github\dspace-modelica-example\dSpaceExample\FiveZoneDemo\ModelicaConstant\Components\ds_modelica_constant\ds_modelica_constant_dsrt\ds_modelica_constant.a(dspaceexample_t_dy2600gstg0.o86)
 .data          0x0000000008128fb0        0x0 D:\github\dspace-modelica-example\dSpaceExample\FiveZoneDemo\ModelicaConstant\Components\ds_modelica_constant\ds_modelica_constant_dsrt\ds_modelica_constant.a(rtGetInf.o86)
 .data          0x0000000008128fb0        0x0 D:\github\dspace-modelica-example\dSpaceExample\FiveZoneDemo\ModelicaConstant\Components\ds_modelica_constant\ds_modelica_constant_dsrt\ds_modelica_constant.a(rtGetNaN.o86)
 .data          0x0000000008128fb0        0x0 C:\Program Files\dSPACE RCPHIL 2020-A\SCALEXIO\Lib\libm_fastpow.a(w_pow.o)
 .data          0x0000000008128fb0        0x0 C:\Program Files\dSPACE RCPHIL 2020-A\SCALEXIO\Lib\libm_fastpow.a(e_pow.o)
 .data          0x0000000008128fb0        0x0 c:/programdata/dspace/ad34425a-2298-40d1-8728-e06238c82a90/compiler/qnx650_520/host/win32/x86/usr/bin/../lib/gcc/i486-pc-nto-qnx6.5.0/5.2.0/crtend.o
 .data          0x0000000008128fb0        0x0 C:\ProgramData\dSPACE\ad34425a-2298-40d1-8728-e06238c82a90\Compiler\QNX650_520\target\qnx6/x86/lib/crtn.o

.tm_clone_table
                0x0000000008128fb0        0x0
 .tm_clone_table
                0x0000000008128fb0        0x0 c:/programdata/dspace/ad34425a-2298-40d1-8728-e06238c82a90/compiler/qnx650_520/host/win32/x86/usr/bin/../lib/gcc/i486-pc-nto-qnx6.5.0/5.2.0/crtbegin.o
 .tm_clone_table
                0x0000000008128fb0        0x0 c:/programdata/dspace/ad34425a-2298-40d1-8728-e06238c82a90/compiler/qnx650_520/host/win32/x86/usr/bin/../lib/gcc/i486-pc-nto-qnx6.5.0/5.2.0/crtend.o

.data1
 *(.data1)

.got            0x0000000008128fb0      0x11c
 *(.got.plt)
 .got.plt       0x0000000008128fb0      0x104 C:\ProgramData\dSPACE\ad34425a-2298-40d1-8728-e06238c82a90\Compiler\QNX650_520\target\qnx6/x86/lib/crt1.o
                0x0000000008128fb0                _GLOBAL_OFFSET_TABLE_
 *(.igot.plt)
 .igot.plt      0x00000000081290b4        0x0 C:\ProgramData\dSPACE\ad34425a-2298-40d1-8728-e06238c82a90\Compiler\QNX650_520\target\qnx6/x86/lib/crt1.o
 *(.got)
 .got           0x00000000081290b4       0x18 C:\ProgramData\dSPACE\ad34425a-2298-40d1-8728-e06238c82a90\Compiler\QNX650_520\target\qnx6/x86/lib/crt1.o
 *(.igot)

.sdata
 *(.sdata .sdata.* .gnu.linkonce.s.*)
                0x00000000081290cc                _edata = .
                [!provide]                        PROVIDE (edata, .)
                0x00000000081290cc                . = .
                0x00000000081290cc                __bss_start = .

.sbss
 *(.dynsbss)
 *(.sbss .sbss.* .gnu.linkonce.sb.*)
 *(.scommon)

.bss            0x00000000081290e0      0x96c
 *(.dynbss)
 .dynbss        0x00000000081290e0       0x5c C:\ProgramData\dSPACE\ad34425a-2298-40d1-8728-e06238c82a90\Compiler\QNX650_520\target\qnx6/x86/lib/crt1.o
                0x00000000081290e0                errno
                0x00000000081290e4                _ZTI7DsCTask
                0x0000000008129100                _ZTI14DsCApplication
                0x0000000008129110                _ZTVN10__cxxabiv120__si_class_type_infoE
 *(.bss .bss.* .gnu.linkonce.b.*)
 .bss           0x000000000812913c        0x0 C:\ProgramData\dSPACE\ad34425a-2298-40d1-8728-e06238c82a90\Compiler\QNX650_520\target\qnx6/x86/lib/crt1.o
 .bss           0x000000000812913c        0x0 C:\ProgramData\dSPACE\ad34425a-2298-40d1-8728-e06238c82a90\Compiler\QNX650_520\target\qnx6/x86/lib/crti.o
 .bss           0x000000000812913c       0x20 c:/programdata/dspace/ad34425a-2298-40d1-8728-e06238c82a90/compiler/qnx650_520/host/win32/x86/usr/bin/../lib/gcc/i486-pc-nto-qnx6.5.0/5.2.0/crtbegin.o
 .bss           0x000000000812915c        0x0 mdladapter_mdlfunctions.o86
 .bss           0x000000000812915c        0x0 mdlCode_ap.o86
 .bss           0x000000000812915c        0x0 data_in_ap.o86
 .bss           0x000000000812915c        0x0 data_out_ap.o86
 .bss           0x000000000812915c        0x0 fm_entry_ap.o86
 .bss           0x000000000812915c        0x0 fm_exit_ap.o86
 .bss           0x000000000812915c       0x30 dssimengine_accesspoint.o86
                0x000000000812915c                xilApiEesPortTrigger
                0x0000000008129160                xilApiEesPortFlags
                0x0000000008129164                pXilApiEesPortErrorSwitching
                0x0000000008129168                pXilApiEesPortErrorActivated
                0x000000000812916c                pXilApiEesPortActiveErrorSet
                0x0000000008129170                pFailureSimulationRelaySwitching
                0x0000000008129174                pFailureSimulationSequenceCount
                0x0000000008129178                pFailureSimulationFailureActivated
                0x000000000812917c                pFailureSimulationFailureConfigured
                0x0000000008129180                pFailureSimulationClientConnected
                0x0000000008129184                pFuseRestoreRequest
                0x0000000008129188                pFuseActualStatus
 .bss           0x000000000812918c        0x0 dssimengine_api.o86
 .bss           0x000000000812918c        0x8 dssimengine_main.o86
                0x000000000812918c                _ZN18DsCApplicationMain11s_pInstanceE
                0x0000000008129190                ErrorList
 *fill*         0x0000000008129194        0x4 
 .bss           0x0000000008129198       0x1c rtosal_task.o86
                0x0000000008129198                StepCounter_Periodic_Task_1
                0x00000000081291a0                RtosAlTaskSimTime_Periodic_Task_1
                0x00000000081291a8                pRtosAlTimer_Periodic_Task_1
                0x00000000081291ac                pRtosAlPeriodic_Task_1
                0x00000000081291b0                _ZN24DsCRtosAlPeriodic_Task_111m_pInstanceE
 .bss           0x00000000081291b4        0x0 rtosal_taskap.o86
 *fill*         0x00000000081291b4        0xc 
 .bss           0x00000000081291c0       0x50 rtosal_simengineap.o86
                0x00000000081291c0                Periodic_Task_1Vars
                0x00000000081291c0                Periodic_Task_1Vars_OvnCounter
                0x00000000081291c4                Periodic_Task_1Vars_TurnaroundTime
                0x00000000081291cc                Periodic_Task_1Vars_Calls
                0x00000000081291d4                Periodic_Task_1Vars_QueueCounter
                0x00000000081291d8                Periodic_Task_1Vars_AbsoluteTime
                0x0000000008129208                ScaledTimeInterval
 .bss           0x0000000008129210        0x8 IOCode_Data.o86
                0x0000000008129210                ds_modelica_constant_fcnModule_SIDRoot_TID1
                0x0000000008129214                py_DriverHandle
 .bss           0x0000000008129218        0x0 dssimengine_accesspoint_Voltage_Out.o86
 .bss           0x0000000008129218        0x4 D:\github\dspace-modelica-example\dSpaceExample\FiveZoneDemo\ModelicaConstant\Components\ds_modelica_constant\ds_modelica_constant_dsrt\ds_modelica_constant.a(ds_modelica_constant_dsrtmdlfcn.o86)
                0x0000000008129218                DSRTStopSimulation
 .bss           0x000000000812921c        0x0 D:\github\dspace-modelica-example\dSpaceExample\FiveZoneDemo\ModelicaConstant\Components\ds_modelica_constant\ds_modelica_constant_dsrt\ds_modelica_constant.a(ds_modelica_constant_dsrttf.o86)
 *fill*         0x000000000812921c        0x4 
 .bss           0x0000000008129220      0x760 D:\github\dspace-modelica-example\dSpaceExample\FiveZoneDemo\ModelicaConstant\Components\ds_modelica_constant\ds_modelica_constant_dsrt\ds_modelica_constant.a(ds_modelica_constant.o86)
                0x0000000008129220                ds_modelica_constant_M_
                0x0000000008129900                ds_modelica_constant_DW
                0x0000000008129978                ds_modelica_constant_B
 .bss           0x0000000008129980        0x0 D:\github\dspace-modelica-example\dSpaceExample\FiveZoneDemo\ModelicaConstant\Components\ds_modelica_constant\ds_modelica_constant_dsrt\ds_modelica_constant.a(ds_modelica_constant_data.o86)
 .bss           0x0000000008129980        0xc D:\github\dspace-modelica-example\dSpaceExample\FiveZoneDemo\ModelicaConstant\Components\ds_modelica_constant\ds_modelica_constant_dsrt\ds_modelica_constant.a(ds_modelica_constant_dsrtvdf.o86)
                0x0000000008129980                p_0_ds_modelica_constant_real_T_0
                0x0000000008129984                p_1_ds_modelica_constant_real_T_0
                0x0000000008129988                p_2_ds_modelica_constant_real_T_0
 *fill*         0x000000000812998c        0x4 
 .bss           0x0000000008129990       0x28 D:\github\dspace-modelica-example\dSpaceExample\FiveZoneDemo\ModelicaConstant\Components\ds_modelica_constant\ds_modelica_constant_dsrt\ds_modelica_constant.a(rt_nonfinite.o86)
                0x0000000008129990                rtNaNF
                0x0000000008129994                rtMinusInfF
                0x0000000008129998                rtInfF
                0x00000000081299a0                rtNaN
                0x00000000081299a8                rtMinusInf
                0x00000000081299b0                rtInf
 *fill*         0x00000000081299b8        0x8 
 .bss           0x00000000081299c0       0x8c D:\github\dspace-modelica-example\dSpaceExample\FiveZoneDemo\ModelicaConstant\Components\ds_modelica_constant\ds_modelica_constant_dsrt\ds_modelica_constant.a(dspaceexample_t_dy2600gstg0.o86)
 .bss           0x0000000008129a4c        0x0 D:\github\dspace-modelica-example\dSpaceExample\FiveZoneDemo\ModelicaConstant\Components\ds_modelica_constant\ds_modelica_constant_dsrt\ds_modelica_constant.a(rtGetInf.o86)
 .bss           0x0000000008129a4c        0x0 D:\github\dspace-modelica-example\dSpaceExample\FiveZoneDemo\ModelicaConstant\Components\ds_modelica_constant\ds_modelica_constant_dsrt\ds_modelica_constant.a(rtGetNaN.o86)
 .bss           0x0000000008129a4c        0x0 C:\Program Files\dSPACE RCPHIL 2020-A\SCALEXIO\Lib\libm_fastpow.a(w_pow.o)
 .bss           0x0000000008129a4c        0x0 C:\Program Files\dSPACE RCPHIL 2020-A\SCALEXIO\Lib\libm_fastpow.a(e_pow.o)
 .bss           0x0000000008129a4c        0x0 c:/programdata/dspace/ad34425a-2298-40d1-8728-e06238c82a90/compiler/qnx650_520/host/win32/x86/usr/bin/../lib/gcc/i486-pc-nto-qnx6.5.0/5.2.0/crtend.o
 .bss           0x0000000008129a4c        0x0 C:\ProgramData\dSPACE\ad34425a-2298-40d1-8728-e06238c82a90\Compiler\QNX650_520\target\qnx6/x86/lib/crtn.o
 *(COMMON)
                0x0000000008129a4c                . = ALIGN ((. != 0x0)?0x4:0x1)
                0x0000000008129a4c                . = ALIGN (0x4)
                0x0000000008129a4c                . = SEGMENT_START ("ldata-segment", .)
                0x0000000008129a4c                . = ALIGN (0x4)
                0x0000000008129a4c                _end = .
                [!provide]                        PROVIDE (end, .)
                0x0000000008129a4c                . = DATA_SEGMENT_END (.)

.stab
 *(.stab)

.stabstr
 *(.stabstr)

.stab.excl
 *(.stab.excl)

.stab.exclstr
 *(.stab.exclstr)

.stab.index
 *(.stab.index)

.stab.indexstr
 *(.stab.indexstr)

.comment        0x0000000000000000       0x35
 *(.comment)
 .comment       0x0000000000000000       0x11 c:/programdata/dspace/ad34425a-2298-40d1-8728-e06238c82a90/compiler/qnx650_520/host/win32/x86/usr/bin/../lib/gcc/i486-pc-nto-qnx6.5.0/5.2.0/crtbegin.o
                                         0x12 (size before relaxing)
 .comment       0x0000000000000011       0x12 mdladapter_mdlfunctions.o86
 .comment       0x0000000000000011       0x12 mdlCode_ap.o86
 .comment       0x0000000000000011       0x12 data_in_ap.o86
 .comment       0x0000000000000011       0x12 data_out_ap.o86
 .comment       0x0000000000000011       0x12 fm_entry_ap.o86
 .comment       0x0000000000000011       0x12 fm_exit_ap.o86
 .comment       0x0000000000000011       0x12 dssimengine_accesspoint.o86
 .comment       0x0000000000000011       0x12 dssimengine_api.o86
 .comment       0x0000000000000011       0x12 dssimengine_main.o86
 .comment       0x0000000000000011       0x12 rtosal_task.o86
 .comment       0x0000000000000011       0x12 rtosal_taskap.o86
 .comment       0x0000000000000011       0x12 rtosal_simengineap.o86
 .comment       0x0000000000000011       0x12 IOCode_Data.o86
 .comment       0x0000000000000011       0x12 dssimengine_accesspoint_Voltage_Out.o86
 .comment       0x0000000000000011       0x12 D:\github\dspace-modelica-example\dSpaceExample\FiveZoneDemo\ModelicaConstant\Components\ds_modelica_constant\ds_modelica_constant_dsrt\ds_modelica_constant.a(ds_modelica_constant_dsrtmdlfcn.o86)
 .comment       0x0000000000000011       0x12 D:\github\dspace-modelica-example\dSpaceExample\FiveZoneDemo\ModelicaConstant\Components\ds_modelica_constant\ds_modelica_constant_dsrt\ds_modelica_constant.a(ds_modelica_constant_dsrttf.o86)
 .comment       0x0000000000000011       0x12 D:\github\dspace-modelica-example\dSpaceExample\FiveZoneDemo\ModelicaConstant\Components\ds_modelica_constant\ds_modelica_constant_dsrt\ds_modelica_constant.a(ds_modelica_constant.o86)
 .comment       0x0000000000000011       0x12 D:\github\dspace-modelica-example\dSpaceExample\FiveZoneDemo\ModelicaConstant\Components\ds_modelica_constant\ds_modelica_constant_dsrt\ds_modelica_constant.a(ds_modelica_constant_data.o86)
 .comment       0x0000000000000011       0x12 D:\github\dspace-modelica-example\dSpaceExample\FiveZoneDemo\ModelicaConstant\Components\ds_modelica_constant\ds_modelica_constant_dsrt\ds_modelica_constant.a(ds_modelica_constant_dsrtvdf.o86)
 .comment       0x0000000000000011       0x12 D:\github\dspace-modelica-example\dSpaceExample\FiveZoneDemo\ModelicaConstant\Components\ds_modelica_constant\ds_modelica_constant_dsrt\ds_modelica_constant.a(rt_nonfinite.o86)
 .comment       0x0000000000000011       0x12 D:\github\dspace-modelica-example\dSpaceExample\FiveZoneDemo\ModelicaConstant\Components\ds_modelica_constant\ds_modelica_constant_dsrt\ds_modelica_constant.a(dspaceexample_t_dy2600gstg0.o86)
 .comment       0x0000000000000011       0x12 D:\github\dspace-modelica-example\dSpaceExample\FiveZoneDemo\ModelicaConstant\Components\ds_modelica_constant\ds_modelica_constant_dsrt\ds_modelica_constant.a(rtGetInf.o86)
 .comment       0x0000000000000011       0x12 D:\github\dspace-modelica-example\dSpaceExample\FiveZoneDemo\ModelicaConstant\Components\ds_modelica_constant\ds_modelica_constant_dsrt\ds_modelica_constant.a(rtGetNaN.o86)
 .comment       0x0000000000000011       0x12 C:\Program Files\dSPACE RCPHIL 2020-A\SCALEXIO\Lib\libm_fastpow.a(w_pow.o)
 .comment       0x0000000000000023       0x12 C:\Program Files\dSPACE RCPHIL 2020-A\SCALEXIO\Lib\libm_fastpow.a(e_pow.o)
 .comment       0x0000000000000035       0x12 c:/programdata/dspace/ad34425a-2298-40d1-8728-e06238c82a90/compiler/qnx650_520/host/win32/x86/usr/bin/../lib/gcc/i486-pc-nto-qnx6.5.0/5.2.0/crtend.o

.debug
 *(.debug)

.line
 *(.line)

.debug_srcinfo
 *(.debug_srcinfo)

.debug_sfnames
 *(.debug_sfnames)

.debug_aranges
 *(.debug_aranges)

.debug_pubnames
 *(.debug_pubnames)

.debug_info
 *(.debug_info .gnu.linkonce.wi.*)

.debug_abbrev
 *(.debug_abbrev)

.debug_line
 *(.debug_line .debug_line.* .debug_line_end)

.debug_frame
 *(.debug_frame)

.debug_str
 *(.debug_str)

.debug_loc
 *(.debug_loc)

.debug_macinfo
 *(.debug_macinfo)

.debug_weaknames
 *(.debug_weaknames)

.debug_funcnames
 *(.debug_funcnames)

.debug_typenames
 *(.debug_typenames)

.debug_varnames
 *(.debug_varnames)

.debug_pubtypes
 *(.debug_pubtypes)

.debug_ranges
 *(.debug_ranges)

.debug_macro
 *(.debug_macro)

.gnu.attributes
 *(.gnu.attributes)

/DISCARD/
 *(.note.GNU-stack)
 *(.gnu_debuglink)
 *(.gnu.lto_*)
OUTPUT(ds_modelica_constant.x86 elf32-i386)
